; Function Attrs: mustprogress nofree norecurse nosync nounwind willreturn memory(read, inaccessiblemem: none) uwtable
define i32 @usearch_getMatchedLength_75(ptr noundef readonly %strsrch) local_unnamed_addr #5 {
entry:
  %tobool.not = icmp eq ptr %strsrch, null
  br i1 %tobool.not, label %return, label %if.then

if.then:                                          ; preds = %entry
  %0 = load ptr, ptr %strsrch, align 8
  %matchedLength = getelementptr inbounds i8, ptr %0, i64 36
  %1 = load i32, ptr %matchedLength, align 4
  br label %return

return:                                           ; preds = %entry, %if.then
  %retval.0 = phi i32 [ %1, %if.then ], [ -1, %entry ]
  ret i32 %retval.0
}